; Function Attrs: mustprogress uwtable
define hidden noundef zeroext i1 @_ZN5nlsat8adjacentERN17algebraic_numbers7managerERKNS_8intervalES5_(ptr noundef nonnull align 8 dereferenceable(17) %0, ptr noundef nonnull align 8 dereferenceable(32) %1, ptr noundef nonnull align 8 dereferenceable(32) %2) local_unnamed_addr #4 {
  %4 = getelementptr inbounds nuw i8, ptr %1, i64 24
  %5 = getelementptr inbounds nuw i8, ptr %2, i64 16
  %6 = tail call noundef i32 @_ZN17algebraic_numbers7manager7compareERKNS_4anumES3_(ptr noundef nonnull align 8 dereferenceable(17) %0, ptr noundef nonnull align 8 dereferenceable(8) %4, ptr noundef nonnull align 8 dereferenceable(8) %5)
  %7 = icmp eq i32 %6, 0
  br i1 %7, label %8, label %14

8:                                                ; preds = %3
  %9 = load i8, ptr %1, align 8
  %10 = and i8 %9, 2
  %.not = icmp eq i8 %10, 0
  %11 = load i8, ptr %2, align 8
  %12 = and i8 %11, 1
  %.not6 = icmp eq i8 %12, 0
  %13 = select i1 %.not, i1 true, i1 %.not6
  br label %14

14:                                               ; preds = %3, %8
  %.0 = phi i1 [ %13, %8 ], [ false, %3 ]
  ret i1 %.0
}